target datalayout = "e-m:e-p270:32:32-p271:32:32-p272:64:64-i64:64-i128:128-f80:128-n8:16:32:64-S128"
target triple = "x86_64-pc-linux-gnu"

%"struct.std::__1::__no_destroy" = type { [312 x i8] }
%"class.std::__1::locale" = type { ptr }
%"class.std::__1::__shared_count" = type { ptr, i64 }

@_ZNSt3__16locale5__imp19classic_locale_imp_E = hidden global %"struct.std::__1::__no_destroy" zeroinitializer, align 8
@_ZNSt3__16locale5__impC1ERKS1_PNS0_5facetEl = hidden unnamed_addr alias void (ptr, ptr, ptr, i64), ptr @_ZNSt3__16locale5__impC2ERKS1_PNS0_5facetEl

; Function Attrs: inlinehint mustprogress nounwind uwtable
define linkonce_odr hidden noundef i64 @_ZNSt3__134__libcpp_atomic_refcount_incrementB8ne210000IlEET_RS1_(ptr noundef nonnull align 8 dereferenceable(8) %0) #4 comdat {
  %2 = alloca ptr, align 8
  %3 = alloca i64, align 8
  %4 = alloca i64, align 8
  store ptr %0, ptr %2, align 8, !tbaa !63
  %5 = load ptr, ptr %2, align 8, !tbaa !63
  store i64 1, ptr %3, align 8, !tbaa !16
  %6 = load i64, ptr %3, align 8
  %7 = atomicrmw add ptr %5, i64 %6 monotonic, align 8
  %8 = add i64 %7, %6
  store i64 %8, ptr %4, align 8
  %9 = load i64, ptr %4, align 8, !tbaa !16
  ret i64 %9
}

; Function Attrs: mustprogress nounwind uwtable
define linkonce_odr hidden void @_ZNSt3__114__shared_count12__add_sharedB8ne210000Ev(ptr noundef nonnull align 8 dereferenceable(16) %0) #0 comdat align 2 {
  %2 = alloca ptr, align 8
  store ptr %0, ptr %2, align 8, !tbaa !390
  %3 = load ptr, ptr %2, align 8
  %4 = getelementptr inbounds nuw %"class.std::__1::__shared_count", ptr %3, i32 0, i32 1
  %5 = call noundef i64 @_ZNSt3__134__libcpp_atomic_refcount_incrementB8ne210000IlEET_RS1_(ptr noundef nonnull align 8 dereferenceable(8) %4) #13
  ret void
}

; Function Attrs: mustprogress nounwind uwtable
define linkonce_odr hidden noundef nonnull align 8 dereferenceable(312) ptr @_ZNSt3__112__no_destroyINS_6locale5__impEE5__getB8ne210000Ev(ptr noundef nonnull align 8 dereferenceable(312) %0) #0 comdat align 2 {
  %2 = alloca ptr, align 8
  store ptr %0, ptr %2, align 8, !tbaa !433
  %3 = load ptr, ptr %2, align 8
  %4 = getelementptr inbounds nuw %"struct.std::__1::__no_destroy", ptr %3, i32 0, i32 0
  %5 = getelementptr inbounds [312 x i8], ptr %4, i64 0, i64 0
  ret ptr %5
}

; Function Attrs: mustprogress uwtable
define hidden void @_ZNSt3__16locale5__imp7acquireEv(ptr noundef nonnull align 8 dereferenceable(312) %0) #2 align 2 {
  %2 = alloca ptr, align 8
  store ptr %0, ptr %2, align 8, !tbaa !361
  %3 = load ptr, ptr %2, align 8
  %4 = call noundef nonnull align 8 dereferenceable(312) ptr @_ZNSt3__112__no_destroyINS_6locale5__impEE5__getB8ne210000Ev(ptr noundef nonnull align 8 dereferenceable(312) @_ZNSt3__16locale5__imp19classic_locale_imp_E)
  %5 = icmp ne ptr %3, %4
  br i1 %5, label %6, label %7

6:                                                ; preds = %1
  call void @_ZNSt3__114__shared_count12__add_sharedB8ne210000Ev(ptr noundef nonnull align 8 dereferenceable(16) %3) #13
  br label %7

7:                                                ; preds = %6, %1
  ret void
}

; Function Attrs: mustprogress uwtable
define dso_local void @_ZNSt3__16locale14__install_ctorERKS0_PNS0_5facetEl(ptr noundef nonnull align 8 dereferenceable(8) %0, ptr noundef nonnull align 8 dereferenceable(8) %1, ptr noundef %2, i64 noundef %3) #2 align 2 personality ptr @__gxx_personality_v0 {
  %5 = alloca ptr, align 8
  %6 = alloca ptr, align 8
  %7 = alloca ptr, align 8
  %8 = alloca i64, align 8
  %9 = alloca ptr, align 8
  %10 = alloca i32, align 4
  store ptr %0, ptr %5, align 8, !tbaa !51
  store ptr %1, ptr %6, align 8, !tbaa !51
  store ptr %2, ptr %7, align 8, !tbaa !363
  store i64 %3, ptr %8, align 8, !tbaa !16
  %11 = load ptr, ptr %5, align 8
  %12 = load ptr, ptr %7, align 8, !tbaa !363
  %13 = icmp ne ptr %12, null
  br i1 %13, label %14, label %27

14:                                               ; preds = %4
  %15 = call noalias noundef nonnull ptr @_Znwm(i64 noundef 312) #35
  %16 = load ptr, ptr %6, align 8, !tbaa !51
  %17 = getelementptr inbounds nuw %"class.std::__1::locale", ptr %16, i32 0, i32 0
  %18 = load ptr, ptr %17, align 8, !tbaa !386
  %19 = load ptr, ptr %7, align 8, !tbaa !363
  %20 = load i64, ptr %8, align 8, !tbaa !16
  invoke void @_ZNSt3__16locale5__impC1ERKS1_PNS0_5facetEl(ptr noundef nonnull align 8 dereferenceable(312) %15, ptr noundef nonnull align 8 dereferenceable(312) %18, ptr noundef %19, i64 noundef %20)
          to label %21 unwind label %23

21:                                               ; preds = %14
  %22 = getelementptr inbounds nuw %"class.std::__1::locale", ptr %11, i32 0, i32 0
  store ptr %15, ptr %22, align 8, !tbaa !386
  br label %32

23:                                               ; preds = %14
  %24 = landingpad { ptr, i32 }
          cleanup
  %25 = extractvalue { ptr, i32 } %24, 0
  store ptr %25, ptr %9, align 8
  %26 = extractvalue { ptr, i32 } %24, 1
  store i32 %26, ptr %10, align 4
  call void @_ZdlPvm(ptr noundef %15, i64 noundef 312) #28
  br label %35

27:                                               ; preds = %4
  %28 = load ptr, ptr %6, align 8, !tbaa !51
  %29 = getelementptr inbounds nuw %"class.std::__1::locale", ptr %28, i32 0, i32 0
  %30 = load ptr, ptr %29, align 8, !tbaa !386
  %31 = getelementptr inbounds nuw %"class.std::__1::locale", ptr %11, i32 0, i32 0
  store ptr %30, ptr %31, align 8, !tbaa !386
  br label %32

32:                                               ; preds = %27, %21
  %33 = getelementptr inbounds nuw %"class.std::__1::locale", ptr %11, i32 0, i32 0
  %34 = load ptr, ptr %33, align 8, !tbaa !386
  call void @_ZNSt3__16locale5__imp7acquireEv(ptr noundef nonnull align 8 dereferenceable(312) %34)
  ret void

35:                                               ; preds = %23
  %36 = load ptr, ptr %9, align 8
  %37 = load i32, ptr %10, align 4
  %38 = insertvalue { ptr, i32 } poison, ptr %36, 0
  %39 = insertvalue { ptr, i32 } %38, i32 %37, 1
  resume { ptr, i32 } %39
}