; Function Attrs: mustprogress uwtable
define dso_local void @_ZNSt3__16locale14__install_ctorERKS0_PNS0_5facetEl(ptr noundef nonnull writeonly align 8 captures(none) dereferenceable(8) %0, ptr noundef nonnull readonly align 8 captures(none) dereferenceable(8) %1, ptr noundef %2, i64 noundef %3) local_unnamed_addr #2 align 2 personality ptr @__gxx_personality_v0 {
  %.not = icmp eq ptr %2, null
  br i1 %.not, label %10, label %5

5:                                                ; preds = %4
  %6 = tail call noalias noundef nonnull dereferenceable(312) ptr @_Znwm(i64 noundef 312) #48
  %7 = load ptr, ptr %1, align 8, !tbaa !28
  invoke void @_ZNSt3__16locale5__impC2ERKS1_PNS0_5facetEl(ptr noundef nonnull align 8 dereferenceable(312) %6, ptr noundef nonnull align 8 dereferenceable(312) %7, ptr noundef nonnull %2, i64 noundef %3)
          to label %.thread unwind label %8

.thread:                                          ; preds = %5
  store ptr %6, ptr %0, align 8, !tbaa !28
  br label %12

8:                                                ; preds = %5
  %9 = landingpad { ptr, i32 }
          cleanup
  tail call void @_ZdlPvm(ptr noundef nonnull %6, i64 noundef 312) #46
  resume { ptr, i32 } %9

10:                                               ; preds = %4
  %11 = load ptr, ptr %1, align 8, !tbaa !28
  store ptr %11, ptr %0, align 8, !tbaa !28
  %.not.i = icmp eq ptr %11, @_ZNSt3__16locale5__imp19classic_locale_imp_E
  br i1 %.not.i, label %_ZNSt3__16locale5__imp7acquireEv.exit, label %12

12:                                               ; preds = %.thread, %10
  %storemerge9 = phi ptr [ %6, %.thread ], [ %11, %10 ]
  %13 = getelementptr inbounds nuw i8, ptr %storemerge9, i64 8
  %14 = atomicrmw add ptr %13, i64 1 monotonic, align 8
  br label %_ZNSt3__16locale5__imp7acquireEv.exit

_ZNSt3__16locale5__imp7acquireEv.exit:            ; preds = %10, %12
  ret void
}